(dp0
Vengine
p1
Vxelatex
p2
sVpackages
p3
c__builtin__
set
p4
((lp5
tp6
Rp7
sVfiles_with_guttermarks
p8
g4
((lp9
V/Users/sunye/Development/Workspaces/teaching/Gestion services/src/doc/latex/./architecture.tex
p10
aS'architecture.tex'
p11
aV/Users/sunye/Development/Workspaces/teaching/Gestion services/src/doc/latex/architecture.tex
p12
atp13
Rp14
sVsynctex
p15
I01
s.