(dp0
Vengine
p1
Vxelatex
p2
sVpackages
p3
c__builtin__
set
p4
((lp5
Vlongtable
p6
aValma
p7
aVpolyglossia
p8
atp9
Rp10
sVfiles_with_guttermarks
p11
g4
((lp12
V/Users/sunye/Development/Workspaces/teaching/Gestion services/src/doc/latex/architecture.tex
p13
aV/Users/sunye/Development/Workspaces/teaching/Gestion services/src/doc/latex/exigences.tex
p14
aV/Users/sunye/Development/Workspaces/teaching/Gestion services/src/doc/latex/./sujet-projet.tex
p15
aV/Users/sunye/Development/Workspaces/teaching/Gestion services/src/doc/latex/./detaillee.tex
p16
aV/Users/sunye/Development/Workspaces/teaching/Gestion services/src/doc/latex/composants.tex
p17
aV/Users/sunye/Development/Workspaces/teaching/Gestion services/src/doc/latex/sujet-projet.tex
p18
aV/Users/sunye/Development/Workspaces/teaching/Gestion services/src/doc/latex/./architecture.tex
p19
aS'sujet-projet.tex'
p20
aV/opt/local/share/texmf-texlive/tex/latex/fontspec/fontspec.sty
p21
aV/Users/sunye/Development/Workspaces/teaching/Gestion services/src/doc/latex/./exigences.tex
p22
aV/Users/sunye/Development/Workspaces/teaching/Gestion services/src/doc/latex/dictionnaire.tex
p23
aV/Users/sunye/Development/Workspaces/teaching/Gestion services/src/doc/latex/./analyse.tex
p24
aV/Users/sunye/Development/Workspaces/teaching/Gestion services/src/doc/latex/analyse.tex
p25
aV/Users/sunye/Development/Workspaces/teaching/Gestion services/src/doc/latex/detaillee.tex
p26
atp27
Rp28
sVsynctex
p29
I01
s.