(dp0
Vengine
p1
Vxelatex
p2
sVpackages
p3
c__builtin__
set
p4
((lp5
Vpolyglossia
p6
aValma
p7
aVlastpage
p8
aVgrffile
p9
aVgraphicx
p10
aVlongtable
p11
atp12
Rp13
sVfiles_with_guttermarks
p14
g4
((lp15
V/Users/sunye/Development/Workspaces/teaching/Gestion services/src/doc/latex/./sujet-projet.tex
p16
aV/Users/sunye/Development/Workspaces/teaching/Gestion services/src/doc/latex/./detaillee.tex
p17
aV/Volumes/Work/GitHub/tp-gestion-services/src/doc/latex/./sujet-projet.aux
p18
aV/Users/sunye/Development/Workspaces/teaching/Gestion services/src/doc/latex/sujet-projet.tex
p19
aS'sujet-projet.tex'
p20
aV/Volumes/Work/GitHub/tp-gestion-services/src/doc/latex/sujet-projet.tex
p21
aV/Volumes/Work/GitHub/tp-gestion-services/src/doc/latex/detaillee.tex
p22
aV/Users/sunye/Library/texmf/tex/latex/science/alma.sty
p23
aV/opt/local/share/texmf-texlive/tex/latex/fontspec/fontspec.sty
p24
aV/Volumes/Work/GitHub/tp-gestion-services/src/doc/latex/./sujet-projet.tex
p25
aV/Users/sunye/Development/Workspaces/teaching/Gestion services/src/doc/latex/dictionnaire.tex
p26
aV/Volumes/Work/GitHub/tp-gestion-services/src/doc/latex/./exigences.tex
p27
aV/Users/sunye/Development/Workspaces/teaching/Gestion services/src/doc/latex/exigences.tex
p28
aV/Volumes/Work/GitHub/tp-gestion-services/src/doc/latex/analyse.tex
p29
aV/Users/sunye/Development/Workspaces/teaching/Gestion services/src/doc/latex/composants.tex
p30
aV/Volumes/Work/GitHub/tp-gestion-services/src/doc/latex/dictionnaire.tex
p31
aV/Users/sunye/Development/Workspaces/teaching/Gestion services/src/doc/latex/./architecture.tex
p32
aV/Volumes/Work/GitHub/tp-gestion-services/src/doc/latex/./analyse.tex
p33
aV/Users/sunye/Development/Workspaces/teaching/Gestion services/src/doc/latex/analyse.tex
p34
aV/Users/sunye/Development/Workspaces/teaching/Gestion services/src/doc/latex/detaillee.tex
p35
aV/Volumes/Work/GitHub/tp-gestion-services/src/doc/latex/architecture.tex
p36
aV/Volumes/Work/GitHub/tp-gestion-services/src/doc/latex/composants.tex
p37
aV/Users/sunye/Development/Workspaces/teaching/Gestion services/src/doc/latex/architecture.tex
p38
aV/Users/sunye/Development/Workspaces/teaching/Gestion services/src/doc/latex/./exigences.tex
p39
aV/Volumes/Work/GitHub/tp-gestion-services/src/doc/latex/exigences.tex
p40
aV/Users/sunye/Development/Workspaces/teaching/Gestion services/src/doc/latex/./analyse.tex
p41
atp42
Rp43
sVsynctex
p44
I01
s.